target datalayout = "e-m:e-p270:32:32-p271:32:32-p272:64:64-i64:64-i128:128-f80:128-n8:16:32:64-S128"
target triple = "x86_64-pc-linux-gnu"

%struct.stbi__write_context = type { ptr, ptr }

; Function Attrs: mustprogress uwtable
define dso_local void @_Z22stbiw__write_dump_dataP19stbi__write_contextiPh(ptr noundef %0, i32 noundef %1, ptr noundef %2) #4 {
  %4 = alloca ptr, align 8
  %5 = alloca i32, align 4
  %6 = alloca ptr, align 8
  %7 = alloca i8, align 1
  store ptr %0, ptr %4, align 8
  store i32 %1, ptr %5, align 4
  store ptr %2, ptr %6, align 8
  %8 = load i32, ptr %5, align 4
  %9 = and i32 %8, 255
  %10 = trunc i32 %9 to i8
  store i8 %10, ptr %7, align 1
  %11 = load ptr, ptr %4, align 8
  %12 = getelementptr inbounds %struct.stbi__write_context, ptr %11, i32 0, i32 0
  %13 = load ptr, ptr %12, align 8
  %14 = load ptr, ptr %4, align 8
  %15 = getelementptr inbounds %struct.stbi__write_context, ptr %14, i32 0, i32 1
  %16 = load ptr, ptr %15, align 8
  call void %13(ptr noundef %16, ptr noundef %7, i32 noundef 1)
  %17 = load ptr, ptr %4, align 8
  %18 = getelementptr inbounds %struct.stbi__write_context, ptr %17, i32 0, i32 0
  %19 = load ptr, ptr %18, align 8
  %20 = load ptr, ptr %4, align 8
  %21 = getelementptr inbounds %struct.stbi__write_context, ptr %20, i32 0, i32 1
  %22 = load ptr, ptr %21, align 8
  %23 = load ptr, ptr %6, align 8
  %24 = load i32, ptr %5, align 4
  call void %19(ptr noundef %22, ptr noundef %23, i32 noundef %24)
  ret void
}