; Function Attrs: mustprogress uwtable
define dso_local void @_Z22stbiw__write_dump_dataP19stbi__write_contextiPh(ptr nocapture noundef readonly %0, i32 noundef %1, ptr noundef %2) local_unnamed_addr #3 {
  %4 = alloca i8, align 1
  %5 = trunc i32 %1 to i8
  store i8 %5, ptr %4, align 1
  %6 = load ptr, ptr %0, align 8
  %7 = getelementptr inbounds i8, ptr %0, i64 8
  %8 = load ptr, ptr %7, align 8
  call void %6(ptr noundef %8, ptr noundef nonnull %4, i32 noundef 1)
  %9 = load ptr, ptr %0, align 8
  %10 = load ptr, ptr %7, align 8
  call void %9(ptr noundef %10, ptr noundef %2, i32 noundef %1)
  ret void
}